Certificate:
    Data:
        Version: 3 (0x2)
        Serial Number: 1 (0x1)
        Signature Algorithm: sha1WithRSAEncryption
        Issuer: C=UK, O=Test Certificates, CN=Test CA
        Validity
            Not Before: Mar 10 23:56:15 2008 GMT
            Not After : Mar  5 23:56:15 2028 GMT
        Subject: C=UK, O=Test Certificates, CN=localhost
        Subject Public Key Info:
            Public Key Algorithm: rsaEncryption
            RSA Public Key: (1024 bit)
                Modulus (1024 bit):
                    00:dd:1f:fa:fa:32:b3:4d:f9:13:d9:85:5f:a7:a6:
                    23:d6:6b:97:1c:27:5a:3d:21:d0:da:6f:58:74:d8:
                    04:78:9e:46:18:cc:60:71:84:dc:77:da:93:ac:ff:
                    0e:87:f1:5a:cd:7a:0c:e6:6b:4c:bc:a0:47:f3:3a:
                    20:51:75:35:fb:c8:27:9c:26:5e:2c:1e:16:e8:83:
                    dd:ef:cd:b2:6f:41:92:99:94:6b:45:fc:e1:53:26:
                    81:a2:91:a2:5f:e7:e9:7f:87:02:fb:fa:ba:d6:38:
                    e2:82:97:17:7a:04:c4:82:c8:0f:3f:dc:55:9a:3d:
                    63:4e:2c:69:24:b8:a5:6e:77
                Exponent: 65537 (0x10001)
        X509v3 extensions:
            X509v3 Basic Constraints: 
                CA:FALSE
            Netscape Comment: 
                OpenSSL Generated Certificate
            X509v3 Subject Key Identifier: 
                1D:0A:2A:D1:22:DB:83:2E:64:FB:9D:37:D4:6B:78:F5:F7:0D:32:26
            X509v3 Authority Key Identifier: 
                keyid:D9:7E:2D:A5:42:BB:39:B1:B7:E8:DB:4F:0B:38:EE:22:EA:9A:2B:21

    Signature Algorithm: sha1WithRSAEncryption
        5b:11:d0:49:0f:80:df:50:aa:44:c9:3e:6f:31:cb:d6:8f:34:
        da:84:af:98:13:f6:31:bf:42:05:14:e0:6d:d6:a4:e4:ea:f5:
        1e:80:50:94:b7:69:9a:de:5a:a5:26:72:0a:7b:86:df:80:8e:
        33:15:1b:8f:06:17:ba:b3:08:73:0e:b4:a6:30:bb:d2:9b:c5:
        df:c5:53:e8:ee:aa:4d:c2:37:a9:81:90:fd:f2:09:80:a0:af:
        64:65:df:ef:fc:e1:b1:55:99:14:ae:b2:97:be:e7:d4:06:1a:
        40:f4:e2:df:c0:c2:e6:da:28:ad:7b:76:da:fb:7b:0e:8a:7f:
        69:21
-----BEGIN CERTIFICATE-----
MIICaTCCAdKgAwIBAgIBATANBgkqhkiG9w0BAQUFADA7MQswCQYDVQQGEwJVSzEa
MBgGA1UEChMRVGVzdCBDZXJ0aWZpY2F0ZXMxEDAOBgNVBAMTB1Rlc3QgQ0EwHhcN
MDgwMzEwMjM1NjE1WhcNMjgwMzA1MjM1NjE1WjA9MQswCQYDVQQGEwJVSzEaMBgG
A1UEChMRVGVzdCBDZXJ0aWZpY2F0ZXMxEjAQBgNVBAMTCWxvY2FsaG9zdDCBnzAN
BgkqhkiG9w0BAQEFAAOBjQAwgYkCgYEA3R/6+jKzTfkT2YVfp6Yj1muXHCdaPSHQ
2m9YdNgEeJ5GGMxgcYTcd9qTrP8Oh/FazXoM5mtMvKBH8zogUXU1+8gnnCZeLB4W
6IPd782yb0GSmZRrRfzhUyaBopGiX+fpf4cC+/q61jjigpcXegTEgsgPP9xVmj1j
TixpJLilbncCAwEAAaN7MHkwCQYDVR0TBAIwADAsBglghkgBhvhCAQ0EHxYdT3Bl
blNTTCBHZW5lcmF0ZWQgQ2VydGlmaWNhdGUwHQYDVR0OBBYEFB0KKtEi24MuZPud
N9RrePX3DTImMB8GA1UdIwQYMBaAFNl+LaVCuzmxt+jbTws47iLqmishMA0GCSqG
SIb3DQEBBQUAA4GBAFsR0EkPgN9QqkTJPm8xy9aPNNqEr5gT9jG/QgUU4G3WpOTq
9R6AUJS3aZreWqUmcgp7ht+AjjMVG48GF7qzCHMOtKYwu9Kbxd/FU+juqk3CN6mB
kP3yCYCgr2Rl3+/84bFVmRSuspe+59QGGkD04t/AwubaKK17dtr7ew6Kf2kh
-----END CERTIFICATE-----
