Certificate:
    Data:
        Version: 3 (0x2)
        Serial Number: 2 (0x2)
        Signature Algorithm: sha1WithRSAEncryption
        Issuer: C=UK, O=Test Certificates, CN=Test CA
        Validity
            Not Before: Mar 10 23:58:33 2008 GMT
            Not After : Mar  5 23:58:33 2028 GMT
        Subject: C=UK, O=Test Certificates, CN=testclient
        Subject Public Key Info:
            Public Key Algorithm: rsaEncryption
            RSA Public Key: (1024 bit)
                Modulus (1024 bit):
                    00:b7:a6:aa:b4:95:72:6b:08:96:9c:12:ef:cb:e6:
                    1a:b2:b3:12:13:17:1d:89:28:9b:b6:e8:d9:98:4e:
                    e9:58:dc:6c:cf:f7:c4:42:97:9d:13:e5:e9:40:93:
                    12:1d:01:63:f7:db:4c:65:bd:e0:42:a7:89:66:d1:
                    88:78:48:a5:b2:ed:57:1c:dc:de:03:4c:fc:68:f6:
                    6e:78:38:a8:3b:f8:ef:48:7a:fd:8f:b3:f9:ab:76:
                    fb:5e:62:89:ad:15:ad:b0:03:b3:94:a7:1c:5f:8b:
                    4e:bb:35:f5:17:eb:2b:44:6f:25:ec:ba:ac:e8:ca:
                    43:aa:2d:81:46:75:04:19:7d
                Exponent: 65537 (0x10001)
        X509v3 extensions:
            X509v3 Basic Constraints: 
                CA:FALSE
            Netscape Comment: 
                OpenSSL Generated Certificate
            X509v3 Subject Key Identifier: 
                56:D8:97:FE:1C:62:C3:B0:C3:C5:73:4F:E4:4F:D5:CA:1B:29:31:FE
            X509v3 Authority Key Identifier: 
                keyid:D9:7E:2D:A5:42:BB:39:B1:B7:E8:DB:4F:0B:38:EE:22:EA:9A:2B:21

    Signature Algorithm: sha1WithRSAEncryption
        b6:77:e3:4a:1f:d4:cf:da:bc:e1:4f:38:93:35:48:b8:5f:d8:
        bf:b6:ac:c3:9c:23:b9:d8:0e:1d:af:d5:ca:d6:34:ea:5c:d8:
        88:c0:b3:b8:c2:9c:15:5c:16:03:16:81:df:c1:7a:67:0e:7f:
        0b:28:e6:fb:46:21:ab:88:e9:b9:5b:67:dd:a7:f3:74:00:1a:
        a0:f1:0b:2a:9e:31:56:bb:dd:98:b1:21:c9:d3:d7:bd:3c:aa:
        50:27:c9:82:8f:63:bb:5e:35:10:fe:36:d8:12:95:39:50:8f:
        8e:24:a8:ae:55:86:b4:46:3a:94:3d:b6:98:d1:1f:ff:42:0e:
        0f:cd
-----BEGIN CERTIFICATE-----
MIICajCCAdOgAwIBAgIBAjANBgkqhkiG9w0BAQUFADA7MQswCQYDVQQGEwJVSzEa
MBgGA1UEChMRVGVzdCBDZXJ0aWZpY2F0ZXMxEDAOBgNVBAMTB1Rlc3QgQ0EwHhcN
MDgwMzEwMjM1ODMzWhcNMjgwMzA1MjM1ODMzWjA+MQswCQYDVQQGEwJVSzEaMBgG
A1UEChMRVGVzdCBDZXJ0aWZpY2F0ZXMxEzARBgNVBAMTCnRlc3RjbGllbnQwgZ8w
DQYJKoZIhvcNAQEBBQADgY0AMIGJAoGBALemqrSVcmsIlpwS78vmGrKzEhMXHYko
m7bo2ZhO6VjcbM/3xEKXnRPl6UCTEh0BY/fbTGW94EKniWbRiHhIpbLtVxzc3gNM
/Gj2bng4qDv470h6/Y+z+at2+15iia0VrbADs5SnHF+LTrs19RfrK0RvJey6rOjK
Q6otgUZ1BBl9AgMBAAGjezB5MAkGA1UdEwQCMAAwLAYJYIZIAYb4QgENBB8WHU9w
ZW5TU0wgR2VuZXJhdGVkIENlcnRpZmljYXRlMB0GA1UdDgQWBBRW2Jf+HGLDsMPF
c0/kT9XKGykx/jAfBgNVHSMEGDAWgBTZfi2lQrs5sbfo208LOO4i6porITANBgkq
hkiG9w0BAQUFAAOBgQC2d+NKH9TP2rzhTziTNUi4X9i/tqzDnCO52A4dr9XK1jTq
XNiIwLO4wpwVXBYDFoHfwXpnDn8LKOb7RiGriOm5W2fdp/N0ABqg8QsqnjFWu92Y
sSHJ09e9PKpQJ8mCj2O7XjUQ/jbYEpU5UI+OJKiuVYa0RjqUPbaY0R//Qg4PzQ==
-----END CERTIFICATE-----
