Certificate:
    Data:
        Version: 3 (0x2)
        Serial Number: 3 (0x3)
        Signature Algorithm: sha1WithRSAEncryption
        Issuer: C=UK, O=Test Certificates, CN=Test CA
        Validity
            Not Before: Mar 13 18:08:41 2008 GMT
            Not After : Mar  8 18:08:41 2028 GMT
        Subject: C=UK, O=Test Certificates, CN=testclient-r
        Subject Public Key Info:
            Public Key Algorithm: rsaEncryption
            RSA Public Key: (1024 bit)
                Modulus (1024 bit):
                    00:a8:f5:04:12:ff:9f:d3:5a:a3:9c:b5:2a:e4:c8:
                    44:46:0d:b8:e2:10:7a:6a:21:72:a8:16:60:8f:a9:
                    c1:4f:73:5d:5b:aa:82:6d:35:f2:d9:f2:8b:69:3b:
                    c4:8f:7c:db:c2:87:e1:39:24:c0:a8:2d:87:d3:91:
                    25:99:54:18:90:90:13:d3:ec:d2:8b:96:8b:7d:7a:
                    d8:62:d0:ef:84:e6:a3:74:0c:f1:fa:b2:6b:ac:69:
                    bd:e2:06:47:b8:ce:97:84:c5:1d:c0:27:a5:84:5b:
                    51:25:82:1e:3d:40:c2:1c:7a:6e:b0:46:e5:07:e6:
                    d1:36:2a:48:a6:ab:15:36:25
                Exponent: 65537 (0x10001)
        X509v3 extensions:
            X509v3 Basic Constraints: 
                CA:FALSE
            Netscape Comment: 
                OpenSSL Generated Certificate
            X509v3 Subject Key Identifier: 
                37:0C:55:0A:D7:9B:62:70:30:58:D1:79:B7:A1:76:43:BD:F0:6C:4F
            X509v3 Authority Key Identifier: 
                keyid:D9:7E:2D:A5:42:BB:39:B1:B7:E8:DB:4F:0B:38:EE:22:EA:9A:2B:21

    Signature Algorithm: sha1WithRSAEncryption
        5a:7f:18:81:b6:28:b1:60:f9:0a:ac:62:a7:eb:39:09:a2:97:
        d2:c9:1c:71:51:bd:0e:48:01:bb:6f:9f:4a:e7:35:d4:3e:44:
        8a:37:c2:65:46:15:3e:06:78:6e:ef:ae:bd:6d:f7:df:23:08:
        30:b5:93:e2:4c:f4:0f:cb:21:ca:a0:17:30:02:36:ae:c7:68:
        e6:62:a6:c0:d4:90:b8:53:3e:c6:58:2c:57:4c:99:a0:53:68:
        13:ab:21:dd:a1:10:b2:c2:cd:f3:35:3d:72:08:64:ab:47:64:
        4a:09:43:79:1a:bd:f2:64:2d:50:89:be:1c:a6:de:06:33:ec:
        d0:91
-----BEGIN CERTIFICATE-----
MIICbDCCAdWgAwIBAgIBAzANBgkqhkiG9w0BAQUFADA7MQswCQYDVQQGEwJVSzEa
MBgGA1UEChMRVGVzdCBDZXJ0aWZpY2F0ZXMxEDAOBgNVBAMTB1Rlc3QgQ0EwHhcN
MDgwMzEzMTgwODQxWhcNMjgwMzA4MTgwODQxWjBAMQswCQYDVQQGEwJVSzEaMBgG
A1UEChMRVGVzdCBDZXJ0aWZpY2F0ZXMxFTATBgNVBAMTDHRlc3RjbGllbnQtcjCB
nzANBgkqhkiG9w0BAQEFAAOBjQAwgYkCgYEAqPUEEv+f01qjnLUq5MhERg244hB6
aiFyqBZgj6nBT3NdW6qCbTXy2fKLaTvEj3zbwofhOSTAqC2H05ElmVQYkJAT0+zS
i5aLfXrYYtDvhOajdAzx+rJrrGm94gZHuM6XhMUdwCelhFtRJYIePUDCHHpusEbl
B+bRNipIpqsVNiUCAwEAAaN7MHkwCQYDVR0TBAIwADAsBglghkgBhvhCAQ0EHxYd
T3BlblNTTCBHZW5lcmF0ZWQgQ2VydGlmaWNhdGUwHQYDVR0OBBYEFDcMVQrXm2Jw
MFjRebehdkO98GxPMB8GA1UdIwQYMBaAFNl+LaVCuzmxt+jbTws47iLqmishMA0G
CSqGSIb3DQEBBQUAA4GBAFp/GIG2KLFg+QqsYqfrOQmil9LJHHFRvQ5IAbtvn0rn
NdQ+RIo3wmVGFT4GeG7vrr1t998jCDC1k+JM9A/LIcqgFzACNq7HaOZipsDUkLhT
PsZYLFdMmaBTaBOrId2hELLCzfM1PXIIZKtHZEoJQ3kavfJkLVCJvhym3gYz7NCR
-----END CERTIFICATE-----
